target datalayout = "e-m:e-p270:32:32-p271:32:32-p272:64:64-i64:64-i128:128-f80:128-n8:16:32:64-S128"
target triple = "x86_64-unknown-linux-gnu"

; Function Attrs: mustprogress uwtable
define noundef ptr @_ZN7rocksdb11TraceRecord19NewExecutionHandlerEPNS_2DBERKSt6vectorIPNS_18ColumnFamilyHandleESaIS5_EE(ptr noundef %db, ptr noundef nonnull align 8 dereferenceable(24) %handles) #1 align 2 personality ptr @__gxx_personality_v0 {
entry:
  %db.addr = alloca ptr, align 8
  %handles.addr = alloca ptr, align 8
  %exn.slot = alloca ptr, align 8
  %ehselector.slot = alloca i32, align 4
  store ptr %db, ptr %db.addr, align 8
  store ptr %handles, ptr %handles.addr, align 8
  %call = call noalias noundef nonnull ptr @_Znwm(i64 noundef 264) #10
  %0 = load ptr, ptr %db.addr, align 8
  %1 = load ptr, ptr %handles.addr, align 8
  invoke void @_ZN7rocksdb21TraceExecutionHandlerC1EPNS_2DBERKSt6vectorIPNS_18ColumnFamilyHandleESaIS5_EE(ptr noundef nonnull align 8 dereferenceable(264) %call, ptr noundef %0, ptr noundef nonnull align 8 dereferenceable(24) %1)
          to label %invoke.cont unwind label %lpad

invoke.cont:                                      ; preds = %entry
  ret ptr %call

lpad:                                             ; preds = %entry
  %2 = landingpad { ptr, i32 }
          cleanup
  %3 = extractvalue { ptr, i32 } %2, 0
  store ptr %3, ptr %exn.slot, align 8
  %4 = extractvalue { ptr, i32 } %2, 1
  store i32 %4, ptr %ehselector.slot, align 4
  call void @_ZdlPv(ptr noundef %call) #11
  br label %eh.resume

eh.resume:                                        ; preds = %lpad
  %exn = load ptr, ptr %exn.slot, align 8
  %sel = load i32, ptr %ehselector.slot, align 4
  %lpad.val = insertvalue { ptr, i32 } poison, ptr %exn, 0
  %lpad.val1 = insertvalue { ptr, i32 } %lpad.val, i32 %sel, 1
  resume { ptr, i32 } %lpad.val1
}