; Function Attrs: mustprogress uwtable
define noundef nonnull ptr @_ZN7rocksdb11TraceRecord19NewExecutionHandlerEPNS_2DBERKSt6vectorIPNS_18ColumnFamilyHandleESaIS5_EE(ptr noundef %db, ptr noundef nonnull align 8 dereferenceable(24) %handles) local_unnamed_addr #2 align 2 personality ptr @__gxx_personality_v0 {
entry:
  %call = tail call noalias noundef nonnull dereferenceable(264) ptr @_Znwm(i64 noundef 264) #15
  invoke void @_ZN7rocksdb21TraceExecutionHandlerC1EPNS_2DBERKSt6vectorIPNS_18ColumnFamilyHandleESaIS5_EE(ptr noundef nonnull align 8 dereferenceable(264) %call, ptr noundef %db, ptr noundef nonnull align 8 dereferenceable(24) %handles)
          to label %invoke.cont unwind label %lpad

invoke.cont:                                      ; preds = %entry
  ret ptr %call

lpad:                                             ; preds = %entry
  %0 = landingpad { ptr, i32 }
          cleanup
  tail call void @_ZdlPv(ptr noundef nonnull %call) #16
  resume { ptr, i32 } %0
}